; Function Attrs: mustprogress uwtable
define noundef i32 @_ZNK6casadi9ThreadMap4evalEPPKdPPdPxS4_Pv(ptr noundef nonnull align 8 dereferenceable(1320) %0, ptr noundef %1, ptr noundef %2, ptr noundef %3, ptr noundef %4, ptr nocapture readnone %5) unnamed_addr #3 align 2 personality ptr @__gxx_personality_v0 {
  %7 = alloca %"class.casadi::scoped_checkout", align 8
  call void @llvm.lifetime.start.p0(i64 16, ptr nonnull %7)
  %8 = getelementptr inbounds i8, ptr %0, i64 1304
  %9 = getelementptr inbounds i8, ptr %7, i64 8
  store ptr %8, ptr %9, align 8
  %10 = tail call noundef i64 @_ZNK6casadi8Function8checkoutEv(ptr noundef nonnull align 8 dereferenceable(8) %8)
  %11 = trunc i64 %10 to i32
  store i32 %11, ptr %7, align 8
  %12 = invoke noundef i32 @_ZNK6casadi3Map8eval_genIdEEiPPKT_PPS2_PxS6_i(ptr noundef nonnull align 8 dereferenceable(1320) %0, ptr noundef %1, ptr noundef %2, ptr noundef %3, ptr noundef %4, i32 noundef %11)
          to label %13 unwind label %18

13:                                               ; preds = %6
  %.not.i.i = icmp eq i32 %11, -1
  br i1 %.not.i.i, label %_ZNK6casadi3Map4evalEPPKdPPdPxS4_Pv.exit, label %14

14:                                               ; preds = %13
  invoke void @_ZNK6casadi8Function7releaseEi(ptr noundef nonnull align 8 dereferenceable(8) %8, i32 noundef %11)
          to label %_ZNK6casadi3Map4evalEPPKdPPdPxS4_Pv.exit unwind label %15

15:                                               ; preds = %14
  %16 = landingpad { ptr, i32 }
          catch ptr null
  %17 = extractvalue { ptr, i32 } %16, 0
  tail call void @__clang_call_terminate(ptr %17) #20
  unreachable

18:                                               ; preds = %6
  %19 = landingpad { ptr, i32 }
          cleanup
  call void @_ZN6casadi15scoped_checkoutINS_8FunctionEED2Ev(ptr noundef nonnull align 8 dereferenceable(16) %7) #18
  resume { ptr, i32 } %19

_ZNK6casadi3Map4evalEPPKdPPdPxS4_Pv.exit:         ; preds = %13, %14
  call void @llvm.lifetime.end.p0(i64 16, ptr nonnull %7)
  ret i32 %12
}